target datalayout = "e-m:e-p270:32:32-p271:32:32-p272:64:64-i64:64-i128:128-f80:128-n8:16:32:64-S128"
target triple = "x86_64-pc-linux-gnu"

%"class.llvm::StringRef" = type { ptr, i64 }
%"class.llvm::cl::ExpansionContext" = type <{ %"class.llvm::StringSaver", ptr, ptr, %"class.llvm::StringRef", %"class.llvm::ArrayRef", i8, i8, i8, [5 x i8] }>
%"class.llvm::StringSaver" = type { ptr }
%"class.llvm::ArrayRef" = type { ptr, i64 }
%"class.llvm::IntrusiveRefCntPtr" = type { ptr }
%"class.llvm::ThreadSafeRefCountedBase" = type { %"struct.std::atomic.90" }
%"struct.std::atomic.90" = type { %"struct.std::__atomic_base.91" }
%"struct.std::__atomic_base.91" = type { i32 }

; Function Attrs: mustprogress nounwind uwtable
define linkonce_odr hidden void @_ZNK4llvm24ThreadSafeRefCountedBaseINS_3vfs10FileSystemEE7ReleaseEv(ptr noundef nonnull align 4 dereferenceable(4) %0) #0 comdat align 2 {
  %2 = alloca ptr, align 8
  %3 = alloca i32, align 4
  %4 = alloca i32, align 4
  %5 = alloca i32, align 4
  %6 = alloca i32, align 4
  %7 = alloca ptr, align 8
  %8 = alloca i32, align 4
  store ptr %0, ptr %7, align 8
  %9 = load ptr, ptr %7, align 8
  %10 = getelementptr inbounds nuw %"class.llvm::ThreadSafeRefCountedBase", ptr %9, i32 0, i32 0
  store ptr %10, ptr %2, align 8
  store i32 1, ptr %3, align 4
  store i32 4, ptr %4, align 4
  %11 = load ptr, ptr %2, align 8
  %12 = load i32, ptr %4, align 4
  %13 = load i32, ptr %3, align 4
  store i32 %13, ptr %5, align 4
  switch i32 %12, label %14 [
    i32 1, label %17
    i32 2, label %17
    i32 3, label %20
    i32 4, label %23
    i32 5, label %26
  ]

14:                                               ; preds = %1
  %15 = load i32, ptr %5, align 4
  %16 = atomicrmw sub ptr %11, i32 %15 monotonic, align 4
  store i32 %16, ptr %6, align 4
  br label %29

17:                                               ; preds = %1, %1
  %18 = load i32, ptr %5, align 4
  %19 = atomicrmw sub ptr %11, i32 %18 acquire, align 4
  store i32 %19, ptr %6, align 4
  br label %29

20:                                               ; preds = %1
  %21 = load i32, ptr %5, align 4
  %22 = atomicrmw sub ptr %11, i32 %21 release, align 4
  store i32 %22, ptr %6, align 4
  br label %29

23:                                               ; preds = %1
  %24 = load i32, ptr %5, align 4
  %25 = atomicrmw sub ptr %11, i32 %24 acq_rel, align 4
  store i32 %25, ptr %6, align 4
  br label %29

26:                                               ; preds = %1
  %27 = load i32, ptr %5, align 4
  %28 = atomicrmw sub ptr %11, i32 %27 seq_cst, align 4
  store i32 %28, ptr %6, align 4
  br label %29

29:                                               ; preds = %26, %23, %20, %17, %14
  %30 = load i32, ptr %6, align 4
  %31 = sub nsw i32 %30, 1
  store i32 %31, ptr %8, align 4
  %32 = load i32, ptr %8, align 4
  %33 = icmp eq i32 %32, 0
  br i1 %33, label %34, label %42

34:                                               ; preds = %29
  %35 = getelementptr inbounds i8, ptr %9, i64 -8
  %36 = icmp eq ptr %35, null
  br i1 %36, label %41, label %37

37:                                               ; preds = %34
  %38 = load ptr, ptr %35, align 8
  %39 = getelementptr inbounds ptr, ptr %38, i64 1
  %40 = load ptr, ptr %39, align 8
  call void %40(ptr noundef nonnull align 8 dereferenceable(12) %35) #5
  br label %41

41:                                               ; preds = %37, %34
  br label %42

42:                                               ; preds = %41, %29
  ret void
}

; Function Attrs: mustprogress nounwind uwtable
define linkonce_odr hidden void @_ZN4llvm22IntrusiveRefCntPtrInfoINS_3vfs10FileSystemEE7releaseEPS2_(ptr noundef %0) #0 comdat align 2 {
  %2 = alloca ptr, align 8
  store ptr %0, ptr %2, align 8
  %3 = load ptr, ptr %2, align 8
  %4 = getelementptr inbounds i8, ptr %3, i64 8
  call void @_ZNK4llvm24ThreadSafeRefCountedBaseINS_3vfs10FileSystemEE7ReleaseEv(ptr noundef nonnull align 4 dereferenceable(4) %4)
  ret void
}

; Function Attrs: mustprogress nounwind uwtable
define linkonce_odr hidden void @_ZN4llvm18IntrusiveRefCntPtrINS_3vfs10FileSystemEE7releaseEv(ptr noundef nonnull align 8 dereferenceable(8) %0) #0 comdat align 2 {
  %2 = alloca ptr, align 8
  store ptr %0, ptr %2, align 8
  %3 = load ptr, ptr %2, align 8
  %4 = getelementptr inbounds nuw %"class.llvm::IntrusiveRefCntPtr", ptr %3, i32 0, i32 0
  %5 = load ptr, ptr %4, align 8
  %6 = icmp ne ptr %5, null
  br i1 %6, label %7, label %10

7:                                                ; preds = %1
  %8 = getelementptr inbounds nuw %"class.llvm::IntrusiveRefCntPtr", ptr %3, i32 0, i32 0
  %9 = load ptr, ptr %8, align 8
  call void @_ZN4llvm22IntrusiveRefCntPtrInfoINS_3vfs10FileSystemEE7releaseEPS2_(ptr noundef %9)
  br label %10

10:                                               ; preds = %7, %1
  ret void
}

; Function Attrs: mustprogress nounwind uwtable
define linkonce_odr hidden void @_ZN4llvm8ArrayRefINS_9StringRefEEC2Ev(ptr noundef nonnull align 8 dereferenceable(16) %0) unnamed_addr #0 comdat align 2 {
  %2 = alloca ptr, align 8
  store ptr %0, ptr %2, align 8
  %3 = load ptr, ptr %2, align 8
  %4 = getelementptr inbounds nuw %"class.llvm::ArrayRef", ptr %3, i32 0, i32 0
  store ptr null, ptr %4, align 8
  %5 = getelementptr inbounds nuw %"class.llvm::ArrayRef", ptr %3, i32 0, i32 1
  store i64 0, ptr %5, align 8
  ret void
}

; Function Attrs: mustprogress nounwind uwtable
define linkonce_odr hidden void @_ZN4llvm9StringRefC2Ev(ptr noundef nonnull align 8 dereferenceable(16) %0) unnamed_addr #0 comdat align 2 {
  %2 = alloca ptr, align 8
  store ptr %0, ptr %2, align 8
  %3 = load ptr, ptr %2, align 8
  %4 = getelementptr inbounds nuw %"class.llvm::StringRef", ptr %3, i32 0, i32 0
  store ptr null, ptr %4, align 8
  %5 = getelementptr inbounds nuw %"class.llvm::StringRef", ptr %3, i32 0, i32 1
  store i64 0, ptr %5, align 8
  ret void
}

; Function Attrs: mustprogress nounwind uwtable
define linkonce_odr hidden void @_ZN4llvm18IntrusiveRefCntPtrINS_3vfs10FileSystemEED2Ev(ptr noundef nonnull align 8 dereferenceable(8) %0) unnamed_addr #0 comdat align 2 {
  %2 = alloca ptr, align 8
  store ptr %0, ptr %2, align 8
  %3 = load ptr, ptr %2, align 8
  call void @_ZN4llvm18IntrusiveRefCntPtrINS_3vfs10FileSystemEE7releaseEv(ptr noundef nonnull align 8 dereferenceable(8) %3)
  ret void
}

; Function Attrs: mustprogress nounwind uwtable
define linkonce_odr hidden noundef ptr @_ZNK4llvm18IntrusiveRefCntPtrINS_3vfs10FileSystemEE3getEv(ptr noundef nonnull align 8 dereferenceable(8) %0) #0 comdat align 2 {
  %2 = alloca ptr, align 8
  store ptr %0, ptr %2, align 8
  %3 = load ptr, ptr %2, align 8
  %4 = getelementptr inbounds nuw %"class.llvm::IntrusiveRefCntPtr", ptr %3, i32 0, i32 0
  %5 = load ptr, ptr %4, align 8
  ret ptr %5
}

; Function Attrs: mustprogress nounwind uwtable
define linkonce_odr hidden void @_ZN4llvm11StringSaverC2ERNS_20BumpPtrAllocatorImplINS_15MallocAllocatorELm4096ELm4096ELm128EEE(ptr noundef nonnull align 8 dereferenceable(8) %0, ptr noundef nonnull align 8 dereferenceable(96) %1) unnamed_addr #0 comdat align 2 {
  %3 = alloca ptr, align 8
  %4 = alloca ptr, align 8
  store ptr %0, ptr %3, align 8
  store ptr %1, ptr %4, align 8
  %5 = load ptr, ptr %3, align 8
  %6 = getelementptr inbounds nuw %"class.llvm::StringSaver", ptr %5, i32 0, i32 0
  %7 = load ptr, ptr %4, align 8
  store ptr %7, ptr %6, align 8
  ret void
}

; Function Attrs: mustprogress nounwind uwtable
define dso_local void @_ZN4llvm2cl16ExpansionContextC2ERNS_20BumpPtrAllocatorImplINS_15MallocAllocatorELm4096ELm4096ELm128EEEPFvNS_9StringRefERNS_11StringSaverERNS_15SmallVectorImplIPKcEEbE(ptr noundef nonnull align 8 dereferenceable(59) %0, ptr noundef nonnull align 8 dereferenceable(96) %1, ptr noundef %2) unnamed_addr #0 align 2 {
  %4 = alloca ptr, align 8
  %5 = alloca ptr, align 8
  %6 = alloca ptr, align 8
  %7 = alloca %"class.llvm::IntrusiveRefCntPtr", align 8
  store ptr %0, ptr %4, align 8
  store ptr %1, ptr %5, align 8
  store ptr %2, ptr %6, align 8
  %8 = load ptr, ptr %4, align 8
  %9 = getelementptr inbounds nuw %"class.llvm::cl::ExpansionContext", ptr %8, i32 0, i32 0
  %10 = load ptr, ptr %5, align 8
  call void @_ZN4llvm11StringSaverC2ERNS_20BumpPtrAllocatorImplINS_15MallocAllocatorELm4096ELm4096ELm128EEE(ptr noundef nonnull align 8 dereferenceable(8) %9, ptr noundef nonnull align 8 dereferenceable(96) %10)
  %11 = getelementptr inbounds nuw %"class.llvm::cl::ExpansionContext", ptr %8, i32 0, i32 1
  %12 = load ptr, ptr %6, align 8
  store ptr %12, ptr %11, align 8
  %13 = getelementptr inbounds nuw %"class.llvm::cl::ExpansionContext", ptr %8, i32 0, i32 2
  call void @_ZN4llvm3vfs17getRealFileSystemEv(ptr dead_on_unwind writable sret(%"class.llvm::IntrusiveRefCntPtr") align 8 %7)
  %14 = call noundef ptr @_ZNK4llvm18IntrusiveRefCntPtrINS_3vfs10FileSystemEE3getEv(ptr noundef nonnull align 8 dereferenceable(8) %7)
  call void @_ZN4llvm18IntrusiveRefCntPtrINS_3vfs10FileSystemEED2Ev(ptr noundef nonnull align 8 dereferenceable(8) %7) #5
  store ptr %14, ptr %13, align 8
  %15 = getelementptr inbounds nuw %"class.llvm::cl::ExpansionContext", ptr %8, i32 0, i32 3
  call void @_ZN4llvm9StringRefC2Ev(ptr noundef nonnull align 8 dereferenceable(16) %15) #5
  %16 = getelementptr inbounds nuw %"class.llvm::cl::ExpansionContext", ptr %8, i32 0, i32 4
  call void @_ZN4llvm8ArrayRefINS_9StringRefEEC2Ev(ptr noundef nonnull align 8 dereferenceable(16) %16) #5
  %17 = getelementptr inbounds nuw %"class.llvm::cl::ExpansionContext", ptr %8, i32 0, i32 5
  store i8 0, ptr %17, align 8
  %18 = getelementptr inbounds nuw %"class.llvm::cl::ExpansionContext", ptr %8, i32 0, i32 6
  store i8 0, ptr %18, align 1
  %19 = getelementptr inbounds nuw %"class.llvm::cl::ExpansionContext", ptr %8, i32 0, i32 7
  store i8 0, ptr %19, align 2
  ret void
}