; Function Attrs: mustprogress nounwind uwtable
define dso_local void @_ZN4llvm2cl16ExpansionContextC2ERNS_20BumpPtrAllocatorImplINS_15MallocAllocatorELm4096ELm4096ELm128EEEPFvNS_9StringRefERNS_11StringSaverERNS_15SmallVectorImplIPKcEEbE(ptr nocapture noundef nonnull writeonly align 8 dereferenceable(59) %0, ptr noundef nonnull align 8 dereferenceable(96) %1, ptr noundef %2) unnamed_addr #0 align 2 {
  %4 = alloca %"class.llvm::IntrusiveRefCntPtr", align 8
  store ptr %1, ptr %0, align 8
  %5 = getelementptr inbounds nuw i8, ptr %0, i64 8
  store ptr %2, ptr %5, align 8
  call void @_ZN4llvm3vfs17getRealFileSystemEv(ptr dead_on_unwind nonnull writable sret(%"class.llvm::IntrusiveRefCntPtr") align 8 %4) #25
  %6 = load ptr, ptr %4, align 8
  %.not.i.i = icmp eq ptr %6, null
  br i1 %.not.i.i, label %_ZN4llvm18IntrusiveRefCntPtrINS_3vfs10FileSystemEED2Ev.exit, label %7

7:                                                ; preds = %3
  %8 = getelementptr inbounds i8, ptr %6, i64 8
  %9 = atomicrmw sub ptr %8, i32 1 acq_rel, align 4
  %10 = icmp eq i32 %9, 1
  br i1 %10, label %11, label %_ZN4llvm18IntrusiveRefCntPtrINS_3vfs10FileSystemEED2Ev.exit

11:                                               ; preds = %7
  %12 = load ptr, ptr %6, align 8
  %13 = getelementptr inbounds i8, ptr %12, i64 8
  %14 = load ptr, ptr %13, align 8
  call void %14(ptr noundef nonnull align 8 dereferenceable(12) %6) #25
  br label %_ZN4llvm18IntrusiveRefCntPtrINS_3vfs10FileSystemEED2Ev.exit

_ZN4llvm18IntrusiveRefCntPtrINS_3vfs10FileSystemEED2Ev.exit: ; preds = %3, %7, %11
  %15 = getelementptr inbounds nuw i8, ptr %0, i64 16
  store ptr %6, ptr %15, align 8
  %16 = getelementptr inbounds nuw i8, ptr %0, i64 24
  call void @llvm.memset.p0.i64(ptr noundef nonnull align 8 dereferenceable(35) %16, i8 0, i64 35, i1 false)
  ret void
}